; Function Attrs: mustprogress noreturn nounwind uwtable
define void @_ZN6Gluco217printUsageAndExitEiPPcb(i32 %0, ptr noundef readonly captures(none) %1, i1 noundef zeroext %2) local_unnamed_addr #1 {
  %4 = load ptr, ptr @_ZZN6Gluco26Option14getUsageStringEvE9usage_str, align 8, !tbaa !7
  %.not = icmp eq ptr %4, null
  br i1 %.not, label %9, label %5

5:                                                ; preds = %3
  %6 = load ptr, ptr @stderr, align 8, !tbaa !23
  %7 = load ptr, ptr %1, align 8, !tbaa !7
  %8 = tail call i32 (ptr, ptr, ...) @fprintf(ptr noundef %6, ptr noundef nonnull %4, ptr noundef %7) #10
  br label %9

9:                                                ; preds = %5, %3
  %10 = load atomic i8, ptr @_ZGVZN6Gluco26Option13getOptionListEvE7options acquire, align 8
  %11 = icmp eq i8 %10, 0
  br i1 %11, label %12, label %_ZN6Gluco26Option13getOptionListEv.exit, !prof !13

12:                                               ; preds = %9
  %13 = tail call i32 @__cxa_guard_acquire(ptr nonnull @_ZGVZN6Gluco26Option13getOptionListEvE7options) #9
  %.not.i = icmp eq i32 %13, 0
  br i1 %.not.i, label %_ZN6Gluco26Option13getOptionListEv.exit, label %14

14:                                               ; preds = %12
  tail call void @llvm.memset.p0.i64(ptr noundef nonnull align 8 dereferenceable(16) @_ZZN6Gluco26Option13getOptionListEvE7options, i8 0, i64 16, i1 false)
  %15 = tail call i32 @__cxa_atexit(ptr nonnull @_ZN6Gluco23vecIPNS_6OptionEED2Ev, ptr nonnull @_ZZN6Gluco26Option13getOptionListEvE7options, ptr nonnull @__dso_handle) #9
  tail call void @__cxa_guard_release(ptr nonnull @_ZGVZN6Gluco26Option13getOptionListEvE7options) #9
  br label %_ZN6Gluco26Option13getOptionListEv.exit

_ZN6Gluco26Option13getOptionListEv.exit:          ; preds = %9, %12, %14
  %16 = load ptr, ptr @_ZZN6Gluco26Option13getOptionListEvE7options, align 8, !tbaa !17
  %17 = load i32, ptr getelementptr inbounds nuw (i8, ptr @_ZZN6Gluco26Option13getOptionListEvE7options, i64 8), align 8, !tbaa !14
  tail call void @_ZN6Gluco24sortIPNS_6OptionENS1_8OptionLtEEEvPT_iT0_(ptr noundef %16, i32 noundef %17)
  br label %18

18:                                               ; preds = %_ZN6Gluco26Option13getOptionListEv.exit33, %_ZN6Gluco26Option13getOptionListEv.exit
  %indvars.iv = phi i64 [ %indvars.iv.next, %_ZN6Gluco26Option13getOptionListEv.exit33 ], [ 0, %_ZN6Gluco26Option13getOptionListEv.exit ]
  %.015 = phi ptr [ %101, %_ZN6Gluco26Option13getOptionListEv.exit33 ], [ null, %_ZN6Gluco26Option13getOptionListEv.exit ]
  %.0 = phi ptr [ %90, %_ZN6Gluco26Option13getOptionListEv.exit33 ], [ null, %_ZN6Gluco26Option13getOptionListEv.exit ]
  %19 = load atomic i8, ptr @_ZGVZN6Gluco26Option13getOptionListEvE7options acquire, align 8
  %20 = icmp eq i8 %19, 0
  br i1 %20, label %21, label %_ZN6Gluco26Option13getOptionListEv.exit23, !prof !13

21:                                               ; preds = %18
  %22 = tail call i32 @__cxa_guard_acquire(ptr nonnull @_ZGVZN6Gluco26Option13getOptionListEvE7options) #9
  %.not.i22 = icmp eq i32 %22, 0
  br i1 %.not.i22, label %_ZN6Gluco26Option13getOptionListEv.exit23, label %23

23:                                               ; preds = %21
  tail call void @llvm.memset.p0.i64(ptr noundef nonnull align 8 dereferenceable(16) @_ZZN6Gluco26Option13getOptionListEvE7options, i8 0, i64 16, i1 false)
  %24 = tail call i32 @__cxa_atexit(ptr nonnull @_ZN6Gluco23vecIPNS_6OptionEED2Ev, ptr nonnull @_ZZN6Gluco26Option13getOptionListEvE7options, ptr nonnull @__dso_handle) #9
  tail call void @__cxa_guard_release(ptr nonnull @_ZGVZN6Gluco26Option13getOptionListEvE7options) #9
  br label %_ZN6Gluco26Option13getOptionListEv.exit23

_ZN6Gluco26Option13getOptionListEv.exit23:        ; preds = %18, %21, %23
  %25 = load i32, ptr getelementptr inbounds nuw (i8, ptr @_ZZN6Gluco26Option13getOptionListEvE7options, i64 8), align 8, !tbaa !14
  %26 = sext i32 %25 to i64
  %27 = icmp slt i64 %indvars.iv, %26
  br i1 %27, label %38, label %28

28:                                               ; preds = %_ZN6Gluco26Option13getOptionListEv.exit23
  %29 = load ptr, ptr @stderr, align 8, !tbaa !23
  %30 = tail call i64 @fwrite(ptr nonnull @.str.7, i64 16, i64 1, ptr %29) #12
  %31 = load ptr, ptr @stderr, align 8, !tbaa !23
  %32 = load ptr, ptr @_ZZN6Gluco26Option19getHelpPrefixStringEvE15help_prefix_str, align 8, !tbaa !7
  %33 = tail call i32 (ptr, ptr, ...) @fprintf(ptr noundef %31, ptr noundef nonnull @.str.8, ptr noundef %32) #10
  %34 = load ptr, ptr @stderr, align 8, !tbaa !23
  %35 = load ptr, ptr @_ZZN6Gluco26Option19getHelpPrefixStringEvE15help_prefix_str, align 8, !tbaa !7
  %36 = tail call i32 (ptr, ptr, ...) @fprintf(ptr noundef %34, ptr noundef nonnull @.str.9, ptr noundef %35) #10
  %37 = load ptr, ptr @stderr, align 8, !tbaa !23
  %fputc = tail call i32 @fputc(i32 10, ptr %37)
  tail call void @exit(i32 noundef 0) #13
  unreachable

38:                                               ; preds = %_ZN6Gluco26Option13getOptionListEv.exit23
  %39 = load atomic i8, ptr @_ZGVZN6Gluco26Option13getOptionListEvE7options acquire, align 8
  %40 = icmp eq i8 %39, 0
  br i1 %40, label %41, label %_ZN6Gluco26Option13getOptionListEv.exit25, !prof !13

41:                                               ; preds = %38
  %42 = tail call i32 @__cxa_guard_acquire(ptr nonnull @_ZGVZN6Gluco26Option13getOptionListEvE7options) #9
  %.not.i24 = icmp eq i32 %42, 0
  br i1 %.not.i24, label %_ZN6Gluco26Option13getOptionListEv.exit25, label %43

43:                                               ; preds = %41
  tail call void @llvm.memset.p0.i64(ptr noundef nonnull align 8 dereferenceable(16) @_ZZN6Gluco26Option13getOptionListEvE7options, i8 0, i64 16, i1 false)
  %44 = tail call i32 @__cxa_atexit(ptr nonnull @_ZN6Gluco23vecIPNS_6OptionEED2Ev, ptr nonnull @_ZZN6Gluco26Option13getOptionListEvE7options, ptr nonnull @__dso_handle) #9
  tail call void @__cxa_guard_release(ptr nonnull @_ZGVZN6Gluco26Option13getOptionListEvE7options) #9
  br label %_ZN6Gluco26Option13getOptionListEv.exit25

_ZN6Gluco26Option13getOptionListEv.exit25:        ; preds = %38, %41, %43
  %45 = load ptr, ptr @_ZZN6Gluco26Option13getOptionListEvE7options, align 8, !tbaa !17
  %46 = getelementptr inbounds nuw ptr, ptr %45, i64 %indvars.iv
  %47 = load ptr, ptr %46, align 8, !tbaa !18
  %48 = getelementptr inbounds nuw i8, ptr %47, i64 24
  %49 = load ptr, ptr %48, align 8, !tbaa !26
  %50 = load atomic i8, ptr @_ZGVZN6Gluco26Option13getOptionListEvE7options acquire, align 8
  %51 = icmp eq i8 %50, 0
  br i1 %51, label %52, label %_ZN6Gluco26Option13getOptionListEv.exit27, !prof !13

52:                                               ; preds = %_ZN6Gluco26Option13getOptionListEv.exit25
  %53 = tail call i32 @__cxa_guard_acquire(ptr nonnull @_ZGVZN6Gluco26Option13getOptionListEvE7options) #9
  %.not.i26 = icmp eq i32 %53, 0
  br i1 %.not.i26, label %_ZN6Gluco26Option13getOptionListEv.exit27, label %54

54:                                               ; preds = %52
  tail call void @llvm.memset.p0.i64(ptr noundef nonnull align 8 dereferenceable(16) @_ZZN6Gluco26Option13getOptionListEvE7options, i8 0, i64 16, i1 false)
  %55 = tail call i32 @__cxa_atexit(ptr nonnull @_ZN6Gluco23vecIPNS_6OptionEED2Ev, ptr nonnull @_ZZN6Gluco26Option13getOptionListEvE7options, ptr nonnull @__dso_handle) #9
  tail call void @__cxa_guard_release(ptr nonnull @_ZGVZN6Gluco26Option13getOptionListEvE7options) #9
  br label %_ZN6Gluco26Option13getOptionListEv.exit27

_ZN6Gluco26Option13getOptionListEv.exit27:        ; preds = %_ZN6Gluco26Option13getOptionListEv.exit25, %52, %54
  %.not19 = icmp eq ptr %49, %.0
  br i1 %.not19, label %59, label %56

56:                                               ; preds = %_ZN6Gluco26Option13getOptionListEv.exit27
  %57 = load ptr, ptr @stderr, align 8, !tbaa !23
  %58 = tail call i32 (ptr, ptr, ...) @fprintf(ptr noundef %57, ptr noundef nonnull @.str.5, ptr noundef %49) #10
  br label %67

59:                                               ; preds = %_ZN6Gluco26Option13getOptionListEv.exit27
  %60 = load ptr, ptr @_ZZN6Gluco26Option13getOptionListEvE7options, align 8, !tbaa !17
  %61 = getelementptr inbounds nuw ptr, ptr %60, i64 %indvars.iv
  %62 = load ptr, ptr %61, align 8, !tbaa !18
  %63 = getelementptr inbounds nuw i8, ptr %62, i64 32
  %64 = load ptr, ptr %63, align 8, !tbaa !28
  %.not20 = icmp eq ptr %64, %.015
  br i1 %.not20, label %67, label %65

65:                                               ; preds = %59
  %66 = load ptr, ptr @stderr, align 8, !tbaa !23
  %fputc21 = tail call i32 @fputc(i32 10, ptr %66)
  br label %67

67:                                               ; preds = %59, %65, %56
  %68 = load atomic i8, ptr @_ZGVZN6Gluco26Option13getOptionListEvE7options acquire, align 8
  %69 = icmp eq i8 %68, 0
  br i1 %69, label %70, label %_ZN6Gluco26Option13getOptionListEv.exit29, !prof !13

70:                                               ; preds = %67
  %71 = tail call i32 @__cxa_guard_acquire(ptr nonnull @_ZGVZN6Gluco26Option13getOptionListEvE7options) #9
  %.not.i28 = icmp eq i32 %71, 0
  br i1 %.not.i28, label %_ZN6Gluco26Option13getOptionListEv.exit29, label %72

72:                                               ; preds = %70
  tail call void @llvm.memset.p0.i64(ptr noundef nonnull align 8 dereferenceable(16) @_ZZN6Gluco26Option13getOptionListEvE7options, i8 0, i64 16, i1 false)
  %73 = tail call i32 @__cxa_atexit(ptr nonnull @_ZN6Gluco23vecIPNS_6OptionEED2Ev, ptr nonnull @_ZZN6Gluco26Option13getOptionListEvE7options, ptr nonnull @__dso_handle) #9
  tail call void @__cxa_guard_release(ptr nonnull @_ZGVZN6Gluco26Option13getOptionListEvE7options) #9
  br label %_ZN6Gluco26Option13getOptionListEv.exit29

_ZN6Gluco26Option13getOptionListEv.exit29:        ; preds = %67, %70, %72
  %74 = load ptr, ptr @_ZZN6Gluco26Option13getOptionListEvE7options, align 8, !tbaa !17
  %75 = getelementptr inbounds nuw ptr, ptr %74, i64 %indvars.iv
  %76 = load ptr, ptr %75, align 8, !tbaa !18
  %77 = load ptr, ptr %76, align 8, !tbaa !20
  %78 = getelementptr inbounds nuw i8, ptr %77, i64 24
  %79 = load ptr, ptr %78, align 8
  tail call void %79(ptr noundef nonnull align 8 dereferenceable(40) %76, i1 noundef zeroext %2) #9
  %80 = load atomic i8, ptr @_ZGVZN6Gluco26Option13getOptionListEvE7options acquire, align 8
  %81 = icmp eq i8 %80, 0
  br i1 %81, label %82, label %_ZN6Gluco26Option13getOptionListEv.exit31, !prof !13

82:                                               ; preds = %_ZN6Gluco26Option13getOptionListEv.exit29
  %83 = tail call i32 @__cxa_guard_acquire(ptr nonnull @_ZGVZN6Gluco26Option13getOptionListEvE7options) #9
  %.not.i30 = icmp eq i32 %83, 0
  br i1 %.not.i30, label %_ZN6Gluco26Option13getOptionListEv.exit31, label %84

84:                                               ; preds = %82
  tail call void @llvm.memset.p0.i64(ptr noundef nonnull align 8 dereferenceable(16) @_ZZN6Gluco26Option13getOptionListEvE7options, i8 0, i64 16, i1 false)
  %85 = tail call i32 @__cxa_atexit(ptr nonnull @_ZN6Gluco23vecIPNS_6OptionEED2Ev, ptr nonnull @_ZZN6Gluco26Option13getOptionListEvE7options, ptr nonnull @__dso_handle) #9
  tail call void @__cxa_guard_release(ptr nonnull @_ZGVZN6Gluco26Option13getOptionListEvE7options) #9
  br label %_ZN6Gluco26Option13getOptionListEv.exit31

_ZN6Gluco26Option13getOptionListEv.exit31:        ; preds = %_ZN6Gluco26Option13getOptionListEv.exit29, %82, %84
  %86 = load ptr, ptr @_ZZN6Gluco26Option13getOptionListEvE7options, align 8, !tbaa !17
  %87 = getelementptr inbounds nuw ptr, ptr %86, i64 %indvars.iv
  %88 = load ptr, ptr %87, align 8, !tbaa !18
  %89 = getelementptr inbounds nuw i8, ptr %88, i64 24
  %90 = load ptr, ptr %89, align 8, !tbaa !26
  %91 = load atomic i8, ptr @_ZGVZN6Gluco26Option13getOptionListEvE7options acquire, align 8
  %92 = icmp eq i8 %91, 0
  br i1 %92, label %93, label %_ZN6Gluco26Option13getOptionListEv.exit33, !prof !13

93:                                               ; preds = %_ZN6Gluco26Option13getOptionListEv.exit31
  %94 = tail call i32 @__cxa_guard_acquire(ptr nonnull @_ZGVZN6Gluco26Option13getOptionListEvE7options) #9
  %.not.i32 = icmp eq i32 %94, 0
  br i1 %.not.i32, label %_ZN6Gluco26Option13getOptionListEv.exit33, label %95

95:                                               ; preds = %93
  tail call void @llvm.memset.p0.i64(ptr noundef nonnull align 8 dereferenceable(16) @_ZZN6Gluco26Option13getOptionListEvE7options, i8 0, i64 16, i1 false)
  %96 = tail call i32 @__cxa_atexit(ptr nonnull @_ZN6Gluco23vecIPNS_6OptionEED2Ev, ptr nonnull @_ZZN6Gluco26Option13getOptionListEvE7options, ptr nonnull @__dso_handle) #9
  tail call void @__cxa_guard_release(ptr nonnull @_ZGVZN6Gluco26Option13getOptionListEvE7options) #9
  br label %_ZN6Gluco26Option13getOptionListEv.exit33

_ZN6Gluco26Option13getOptionListEv.exit33:        ; preds = %_ZN6Gluco26Option13getOptionListEv.exit31, %93, %95
  %97 = load ptr, ptr @_ZZN6Gluco26Option13getOptionListEvE7options, align 8, !tbaa !17
  %98 = getelementptr inbounds nuw ptr, ptr %97, i64 %indvars.iv
  %99 = load ptr, ptr %98, align 8, !tbaa !18
  %100 = getelementptr inbounds nuw i8, ptr %99, i64 32
  %101 = load ptr, ptr %100, align 8, !tbaa !28
  %indvars.iv.next = add nuw nsw i64 %indvars.iv, 1
  br label %18, !llvm.loop !29
}